target datalayout = "e-m:e-p270:32:32-p271:32:32-p272:64:64-i64:64-i128:128-f80:128-n8:16:32:64-S128"
target triple = "x86_64-pc-linux-gnu"

%struct.curl_mimepart = type { ptr, ptr, i32, i32, ptr, ptr, ptr, ptr, ptr, ptr, ptr, ptr, ptr, ptr, ptr, i64, %struct.mime_state, ptr, %struct.mime_encoder_state, i64 }
%struct.mime_state = type { i32, ptr, i64 }
%struct.mime_encoder_state = type { i64, i64, i64, [256 x i8] }

@.str.34 = private unnamed_addr constant [3 x i8] c"rb\00", align 1

; Function Attrs: nounwind uwtable
define internal i32 @mime_open_file(ptr noundef %0) #0 {
  %2 = alloca i32, align 4
  %3 = alloca ptr, align 8
  store ptr %0, ptr %3, align 8, !tbaa !4
  %4 = load ptr, ptr %3, align 8, !tbaa !4
  %5 = getelementptr inbounds nuw %struct.curl_mimepart, ptr %4, i32 0, i32 9
  %6 = load ptr, ptr %5, align 8, !tbaa !31
  %7 = icmp ne ptr %6, null
  br i1 %7, label %8, label %9

8:                                                ; preds = %1
  store i32 0, ptr %2, align 4
  br label %21

9:                                                ; preds = %1
  %10 = load ptr, ptr %3, align 8, !tbaa !4
  %11 = getelementptr inbounds nuw %struct.curl_mimepart, ptr %10, i32 0, i32 4
  %12 = load ptr, ptr %11, align 8, !tbaa !30
  %13 = call noalias ptr @fopen64(ptr noundef %12, ptr noundef @.str.34)
  %14 = load ptr, ptr %3, align 8, !tbaa !4
  %15 = getelementptr inbounds nuw %struct.curl_mimepart, ptr %14, i32 0, i32 9
  store ptr %13, ptr %15, align 8, !tbaa !31
  %16 = load ptr, ptr %3, align 8, !tbaa !4
  %17 = getelementptr inbounds nuw %struct.curl_mimepart, ptr %16, i32 0, i32 9
  %18 = load ptr, ptr %17, align 8, !tbaa !31
  %19 = icmp ne ptr %18, null
  %20 = select i1 %19, i32 0, i32 -1
  store i32 %20, ptr %2, align 4
  br label %21

21:                                               ; preds = %9, %8
  %22 = load i32, ptr %2, align 4
  ret i32 %22
}

; Function Attrs: nounwind uwtable
define internal i32 @mime_file_seek(ptr noundef %0, i64 noundef %1, i32 noundef %2) #0 {
  %4 = alloca i32, align 4
  %5 = alloca ptr, align 8
  %6 = alloca i64, align 8
  %7 = alloca i32, align 4
  %8 = alloca ptr, align 8
  %9 = alloca i32, align 4
  store ptr %0, ptr %5, align 8, !tbaa !22
  store i64 %1, ptr %6, align 8, !tbaa !50
  store i32 %2, ptr %7, align 4, !tbaa !45
  call void @llvm.lifetime.start.p0(i64 8, ptr %8) #8
  %10 = load ptr, ptr %5, align 8, !tbaa !22
  store ptr %10, ptr %8, align 8, !tbaa !4
  %11 = load i32, ptr %7, align 4, !tbaa !45
  %12 = icmp eq i32 %11, 0
  br i1 %12, label %13, label %22

13:                                               ; preds = %3
  %14 = load i64, ptr %6, align 8, !tbaa !50
  %15 = icmp ne i64 %14, 0
  br i1 %15, label %22, label %16

16:                                               ; preds = %13
  %17 = load ptr, ptr %8, align 8, !tbaa !4
  %18 = getelementptr inbounds nuw %struct.curl_mimepart, ptr %17, i32 0, i32 9
  %19 = load ptr, ptr %18, align 8, !tbaa !31
  %20 = icmp ne ptr %19, null
  br i1 %20, label %22, label %21

21:                                               ; preds = %16
  store i32 0, ptr %4, align 4
  store i32 1, ptr %9, align 4
  br label %36

22:                                               ; preds = %16, %13, %3
  %23 = load ptr, ptr %8, align 8, !tbaa !4
  %24 = call i32 @mime_open_file(ptr noundef %23)
  %25 = icmp ne i32 %24, 0
  br i1 %25, label %26, label %27

26:                                               ; preds = %22
  store i32 1, ptr %4, align 4
  store i32 1, ptr %9, align 4
  br label %36

27:                                               ; preds = %22
  %28 = load ptr, ptr %8, align 8, !tbaa !4
  %29 = getelementptr inbounds nuw %struct.curl_mimepart, ptr %28, i32 0, i32 9
  %30 = load ptr, ptr %29, align 8, !tbaa !31
  %31 = load i64, ptr %6, align 8, !tbaa !50
  %32 = load i32, ptr %7, align 4, !tbaa !45
  %33 = call i32 @fseek(ptr noundef %30, i64 noundef %31, i32 noundef %32)
  %34 = icmp ne i32 %33, 0
  %35 = select i1 %34, i32 2, i32 0
  store i32 %35, ptr %4, align 4
  store i32 1, ptr %9, align 4
  br label %36

36:                                               ; preds = %27, %26, %21
  call void @llvm.lifetime.end.p0(i64 8, ptr %8) #8
  %37 = load i32, ptr %4, align 4
  ret i32 %37
}