; Function Attrs: nofree nounwind uwtable
define internal range(i32 0, 3) i32 @mime_file_seek(ptr noundef captures(none) %0, i64 noundef %1, i32 noundef %2) #9 {
  %4 = icmp ne i32 %2, 0
  %5 = icmp ne i64 %1, 0
  %or.cond = or i1 %5, %4
  %.phi.trans.insert = getelementptr inbounds nuw i8, ptr %0, i64 64
  %.pre = load ptr, ptr %.phi.trans.insert, align 8, !tbaa !21
  %.not.i = icmp eq ptr %.pre, null
  br i1 %or.cond, label %7, label %6

6:                                                ; preds = %3
  br i1 %.not.i, label %15, label %mime_open_file.exit.thread

7:                                                ; preds = %3
  br i1 %.not.i, label %mime_open_file.exit, label %mime_open_file.exit.thread

mime_open_file.exit:                              ; preds = %7
  %8 = getelementptr inbounds nuw i8, ptr %0, i64 64
  %9 = getelementptr inbounds nuw i8, ptr %0, i64 24
  %10 = load ptr, ptr %9, align 8, !tbaa !20
  %11 = tail call noalias ptr @fopen64(ptr noundef %10, ptr noundef nonnull @.str.34)
  store ptr %11, ptr %8, align 8, !tbaa !21
  %.not4.i.not = icmp eq ptr %11, null
  br i1 %.not4.i.not, label %15, label %mime_open_file.exit.thread

mime_open_file.exit.thread:                       ; preds = %6, %7, %mime_open_file.exit
  %12 = phi ptr [ %.pre, %7 ], [ %11, %mime_open_file.exit ], [ %.pre, %6 ]
  %13 = tail call i32 @fseek(ptr noundef nonnull %12, i64 noundef %1, i32 noundef %2)
  %.not10 = icmp eq i32 %13, 0
  %14 = select i1 %.not10, i32 0, i32 2
  br label %15

15:                                               ; preds = %mime_open_file.exit, %6, %mime_open_file.exit.thread
  %.0 = phi i32 [ %14, %mime_open_file.exit.thread ], [ 0, %6 ], [ 1, %mime_open_file.exit ]
  ret i32 %.0
}